target datalayout = "e-m:e-p270:32:32-p271:32:32-p272:64:64-i64:64-i128:128-f80:128-n8:16:32:64-S128"
target triple = "x86_64-pc-linux-gnu"

; Function Attrs: inlinehint nounwind uwtable
define internal void @rgb16to15_c(ptr noundef %0, ptr noundef %1, i32 noundef %2) #4 {
  %4 = alloca ptr, align 8
  %5 = alloca ptr, align 8
  %6 = alloca i32, align 4
  %7 = alloca ptr, align 8
  %8 = alloca ptr, align 8
  %9 = alloca ptr, align 8
  %10 = alloca ptr, align 8
  %11 = alloca i32, align 4
  %12 = alloca i16, align 2
  store ptr %0, ptr %4, align 8, !tbaa !4
  store ptr %1, ptr %5, align 8, !tbaa !4
  store i32 %2, ptr %6, align 4, !tbaa !9
  call void @llvm.lifetime.start.p0(i64 8, ptr %7) #5
  %13 = load ptr, ptr %5, align 8, !tbaa !4
  store ptr %13, ptr %7, align 8, !tbaa !4
  call void @llvm.lifetime.start.p0(i64 8, ptr %8) #5
  %14 = load ptr, ptr %4, align 8, !tbaa !4
  store ptr %14, ptr %8, align 8, !tbaa !4
  call void @llvm.lifetime.start.p0(i64 8, ptr %9) #5
  %15 = load ptr, ptr %8, align 8, !tbaa !4
  %16 = load i32, ptr %6, align 4, !tbaa !9
  %17 = sext i32 %16 to i64
  %18 = getelementptr inbounds i8, ptr %15, i64 %17
  store ptr %18, ptr %9, align 8, !tbaa !4
  call void @llvm.lifetime.start.p0(i64 8, ptr %10) #5
  %19 = load ptr, ptr %9, align 8, !tbaa !4
  %20 = getelementptr inbounds i8, ptr %19, i64 -3
  store ptr %20, ptr %10, align 8, !tbaa !4
  br label %21

21:                                               ; preds = %25, %3
  %22 = load ptr, ptr %8, align 8, !tbaa !4
  %23 = load ptr, ptr %10, align 8, !tbaa !4
  %24 = icmp ult ptr %22, %23
  br i1 %24, label %25, label %39

25:                                               ; preds = %21
  call void @llvm.lifetime.start.p0(i64 4, ptr %11) #5
  %26 = load ptr, ptr %8, align 8, !tbaa !4
  %27 = load i32, ptr %26, align 4, !tbaa !9
  store i32 %27, ptr %11, align 4, !tbaa !9
  %28 = load i32, ptr %11, align 4, !tbaa !9
  %29 = lshr i32 %28, 1
  %30 = and i32 %29, 2145419232
  %31 = load i32, ptr %11, align 4, !tbaa !9
  %32 = and i32 %31, 2031647
  %33 = or i32 %30, %32
  %34 = load ptr, ptr %7, align 8, !tbaa !4
  store i32 %33, ptr %34, align 4, !tbaa !9
  %35 = load ptr, ptr %8, align 8, !tbaa !4
  %36 = getelementptr inbounds i8, ptr %35, i64 4
  store ptr %36, ptr %8, align 8, !tbaa !4
  %37 = load ptr, ptr %7, align 8, !tbaa !4
  %38 = getelementptr inbounds i8, ptr %37, i64 4
  store ptr %38, ptr %7, align 8, !tbaa !4
  call void @llvm.lifetime.end.p0(i64 4, ptr %11) #5
  br label %21, !llvm.loop !57

39:                                               ; preds = %21
  %40 = load ptr, ptr %8, align 8, !tbaa !4
  %41 = load ptr, ptr %9, align 8, !tbaa !4
  %42 = icmp ult ptr %40, %41
  br i1 %42, label %43, label %56

43:                                               ; preds = %39
  call void @llvm.lifetime.start.p0(i64 2, ptr %12) #5
  %44 = load ptr, ptr %8, align 8, !tbaa !4
  %45 = load i16, ptr %44, align 2, !tbaa !22
  store i16 %45, ptr %12, align 2, !tbaa !22
  %46 = load i16, ptr %12, align 2, !tbaa !22
  %47 = zext i16 %46 to i32
  %48 = ashr i32 %47, 1
  %49 = and i32 %48, 32736
  %50 = load i16, ptr %12, align 2, !tbaa !22
  %51 = zext i16 %50 to i32
  %52 = and i32 %51, 31
  %53 = or i32 %49, %52
  %54 = trunc i32 %53 to i16
  %55 = load ptr, ptr %7, align 8, !tbaa !4
  store i16 %54, ptr %55, align 2, !tbaa !22
  call void @llvm.lifetime.end.p0(i64 2, ptr %12) #5
  br label %56

56:                                               ; preds = %43, %39
  call void @llvm.lifetime.end.p0(i64 8, ptr %10) #5
  call void @llvm.lifetime.end.p0(i64 8, ptr %9) #5
  call void @llvm.lifetime.end.p0(i64 8, ptr %8) #5
  call void @llvm.lifetime.end.p0(i64 8, ptr %7) #5
  ret void
}