; Function Attrs: inlinehint nofree norecurse nosync nounwind memory(argmem: readwrite) uwtable
define internal void @rgb16to15_c(ptr noundef readonly captures(address) %0, ptr noundef writeonly captures(none) %1, i32 noundef %2) #3 {
  %4 = sext i32 %2 to i64
  %5 = getelementptr inbounds i8, ptr %0, i64 %4
  %6 = getelementptr inbounds i8, ptr %5, i64 -3
  %7 = icmp ult ptr %0, %6
  br i1 %7, label %.lr.ph, label %._crit_edge

.lr.ph:                                           ; preds = %3, %.lr.ph
  %.020 = phi ptr [ %14, %.lr.ph ], [ %1, %3 ]
  %.01819 = phi ptr [ %13, %.lr.ph ], [ %0, %3 ]
  %8 = load i32, ptr %.01819, align 4, !tbaa !4
  %9 = lshr i32 %8, 1
  %10 = and i32 %9, 2145419232
  %11 = and i32 %8, 2031647
  %12 = or disjoint i32 %10, %11
  store i32 %12, ptr %.020, align 4, !tbaa !4
  %13 = getelementptr inbounds nuw i8, ptr %.01819, i64 4
  %14 = getelementptr inbounds nuw i8, ptr %.020, i64 4
  %15 = icmp ult ptr %13, %6
  br i1 %15, label %.lr.ph, label %._crit_edge, !llvm.loop !51

._crit_edge:                                      ; preds = %.lr.ph, %3
  %.018.lcssa = phi ptr [ %0, %3 ], [ %13, %.lr.ph ]
  %.0.lcssa = phi ptr [ %1, %3 ], [ %14, %.lr.ph ]
  %16 = icmp ult ptr %.018.lcssa, %5
  br i1 %16, label %17, label %23

17:                                               ; preds = %._crit_edge
  %18 = load i16, ptr %.018.lcssa, align 2, !tbaa !16
  %19 = lshr i16 %18, 1
  %20 = and i16 %19, 32736
  %21 = and i16 %18, 31
  %22 = or disjoint i16 %20, %21
  store i16 %22, ptr %.0.lcssa, align 2, !tbaa !16
  br label %23

23:                                               ; preds = %17, %._crit_edge
  ret void
}